; Function Attrs: nounwind uwtable
define zeroext range(i8 0, 2) i8 @l_Lean_Elab_Tactic_isGrindOnly(ptr noundef %0) local_unnamed_addr #0 {
  %2 = ptrtoint ptr %0 to i64
  %3 = and i64 %2, 1
  %.not = icmp eq i64 %3, 0
  br i1 %.not, label %4, label %lean_inc.exit

4:                                                ; preds = %1
  %.val.i = load i32, ptr %0, align 4, !tbaa !8
  %5 = icmp sgt i32 %.val.i, 0
  br i1 %5, label %6, label %8, !prof !11

6:                                                ; preds = %4
  %7 = add nuw i32 %.val.i, 1
  store i32 %7, ptr %0, align 4, !tbaa !8
  br label %lean_inc.exit

8:                                                ; preds = %4
  %.not.i25 = icmp eq i32 %.val.i, 0
  br i1 %.not.i25, label %lean_inc.exit, label %9

9:                                                ; preds = %8
  tail call void @lean_inc_ref_cold(ptr noundef nonnull %0) #5
  br label %lean_inc.exit

lean_inc.exit:                                    ; preds = %9, %8, %6, %1
  %10 = tail call ptr @l_Lean_Syntax_getKind(ptr noundef %0) #5
  %11 = load ptr, ptr @l_Lean_Elab_Tactic_isGrindOnly___closed__1, align 8, !tbaa !4
  %12 = tail call zeroext i8 @lean_name_eq(ptr noundef %10, ptr noundef %11) #5
  %13 = ptrtoint ptr %10 to i64
  %14 = and i64 %13, 1
  %.not26 = icmp eq i64 %14, 0
  br i1 %.not26, label %15, label %lean_dec.exit18

15:                                               ; preds = %lean_inc.exit
  %16 = load i32, ptr %10, align 4, !tbaa !8
  %17 = icmp sgt i32 %16, 1
  br i1 %17, label %18, label %20, !prof !11

18:                                               ; preds = %15
  %19 = add nsw i32 %16, -1
  store i32 %19, ptr %10, align 4, !tbaa !8
  br label %lean_dec.exit18

20:                                               ; preds = %15
  %.not.i = icmp eq i32 %16, 0
  br i1 %.not.i, label %lean_dec.exit18, label %21

21:                                               ; preds = %20
  tail call void @lean_dec_ref_cold(ptr noundef nonnull %10) #5
  br label %lean_dec.exit18

lean_dec.exit18:                                  ; preds = %21, %20, %18, %lean_inc.exit
  %22 = icmp eq i8 %12, 0
  br i1 %22, label %23, label %31

23:                                               ; preds = %lean_dec.exit18
  br i1 %.not, label %24, label %lean_dec.exit17

24:                                               ; preds = %23
  %25 = load i32, ptr %0, align 4, !tbaa !8
  %26 = icmp sgt i32 %25, 1
  br i1 %26, label %27, label %29, !prof !11

27:                                               ; preds = %24
  %28 = add nsw i32 %25, -1
  store i32 %28, ptr %0, align 4, !tbaa !8
  br label %lean_dec.exit17

29:                                               ; preds = %24
  %.not.i19 = icmp eq i32 %25, 0
  br i1 %.not.i19, label %lean_dec.exit17, label %30

30:                                               ; preds = %29
  tail call void @lean_dec_ref_cold(ptr noundef nonnull %0) #5
  br label %lean_dec.exit17

31:                                               ; preds = %lean_dec.exit18
  %32 = load ptr, ptr @l_Lean_Elab_Tactic_grindOnlyPos, align 8, !tbaa !4
  %33 = tail call ptr @l_Lean_Syntax_getArg(ptr noundef %0, ptr noundef %32) #5
  br i1 %.not, label %34, label %lean_dec.exit16

34:                                               ; preds = %31
  %35 = load i32, ptr %0, align 4, !tbaa !8
  %36 = icmp sgt i32 %35, 1
  br i1 %36, label %37, label %39, !prof !11

37:                                               ; preds = %34
  %38 = add nsw i32 %35, -1
  store i32 %38, ptr %0, align 4, !tbaa !8
  br label %lean_dec.exit16

39:                                               ; preds = %34
  %.not.i21 = icmp eq i32 %35, 0
  br i1 %.not.i21, label %lean_dec.exit16, label %40

40:                                               ; preds = %39
  tail call void @lean_dec_ref_cold(ptr noundef nonnull %0) #5
  br label %lean_dec.exit16

lean_dec.exit16:                                  ; preds = %40, %39, %37, %31
  %41 = tail call zeroext i8 @l_Lean_Syntax_isNone(ptr noundef %33) #5
  %42 = ptrtoint ptr %33 to i64
  %43 = and i64 %42, 1
  %.not27 = icmp eq i64 %43, 0
  br i1 %.not27, label %44, label %lean_dec.exit

44:                                               ; preds = %lean_dec.exit16
  %45 = load i32, ptr %33, align 4, !tbaa !8
  %46 = icmp sgt i32 %45, 1
  br i1 %46, label %47, label %49, !prof !11

47:                                               ; preds = %44
  %48 = add nsw i32 %45, -1
  store i32 %48, ptr %33, align 4, !tbaa !8
  br label %lean_dec.exit

49:                                               ; preds = %44
  %.not.i23 = icmp eq i32 %45, 0
  br i1 %.not.i23, label %lean_dec.exit, label %50

50:                                               ; preds = %49
  tail call void @lean_dec_ref_cold(ptr noundef nonnull %33) #5
  br label %lean_dec.exit

lean_dec.exit:                                    ; preds = %50, %49, %47, %lean_dec.exit16
  %51 = icmp eq i8 %41, 0
  %. = zext i1 %51 to i8
  br label %lean_dec.exit17

lean_dec.exit17:                                  ; preds = %23, %27, %29, %30, %lean_dec.exit
  %.0 = phi i8 [ %., %lean_dec.exit ], [ 0, %30 ], [ 0, %29 ], [ 0, %27 ], [ 0, %23 ]
  ret i8 %.0
}